target datalayout = "e-m:e-p270:32:32-p271:32:32-p272:64:64-i64:64-i128:128-f80:128-n8:16:32:64-S128"
target triple = "x86_64-pc-linux-gnu"

%class.Statement = type { ptr, i32, i32, ptr, ptr }

; Function Attrs: mustprogress uwtable
define dso_local void @_ZNK9Statement11post_outputERSoP7FactMgri(ptr noundef nonnull align 8 dereferenceable(32) %0, ptr noundef nonnull align 8 dereferenceable(8) %1, ptr noundef %2, i32 noundef %3) #5 align 2 {
  %5 = alloca ptr, align 8
  %6 = alloca ptr, align 8
  %7 = alloca ptr, align 8
  %8 = alloca i32, align 4
  store ptr %0, ptr %5, align 8
  store ptr %1, ptr %6, align 8
  store ptr %2, ptr %7, align 8
  store i32 %3, ptr %8, align 4
  %9 = load ptr, ptr %5, align 8
  %10 = load ptr, ptr %7, align 8
  %11 = icmp ne ptr %10, null
  br i1 %11, label %12, label %24

12:                                               ; preds = %4
  %13 = call noundef zeroext i1 @_ZN9CGOptions8paranoidEv()
  br i1 %13, label %14, label %24

14:                                               ; preds = %12
  %15 = call noundef zeroext i1 @_ZN9CGOptions7conciseEv()
  br i1 %15, label %24, label %16

16:                                               ; preds = %14
  %17 = getelementptr inbounds %class.Statement, ptr %9, i32 0, i32 1
  %18 = load i32, ptr %17, align 8
  %19 = icmp ne i32 %18, 1
  br i1 %19, label %20, label %24

20:                                               ; preds = %16
  %21 = load ptr, ptr %7, align 8
  %22 = load ptr, ptr %6, align 8
  %23 = load i32, ptr %8, align 4
  call void @_ZN7FactMgr17output_assertionsERSoPK9Statementib(ptr noundef nonnull align 8 dereferenceable(392) %21, ptr noundef nonnull align 8 dereferenceable(8) %22, ptr noundef %9, i32 noundef %23, i1 noundef zeroext true)
  br label %24

24:                                               ; preds = %20, %16, %14, %12, %4
  ret void
}