; Function Attrs: mustprogress uwtable
define dso_local void @_ZNK9Statement11post_outputERSoP7FactMgri(ptr noundef nonnull align 8 dereferenceable(32) %0, ptr noundef nonnull align 8 dereferenceable(8) %1, ptr noundef %2, i32 noundef %3) local_unnamed_addr #4 align 2 {
  %.not = icmp eq ptr %2, null
  br i1 %.not, label %12, label %5

5:                                                ; preds = %4
  %6 = tail call noundef zeroext i1 @_ZN9CGOptions8paranoidEv()
  br i1 %6, label %7, label %12

7:                                                ; preds = %5
  %8 = tail call noundef zeroext i1 @_ZN9CGOptions7conciseEv()
  %9 = getelementptr inbounds i8, ptr %0, i64 8
  %10 = load i32, ptr %9, align 8
  %.not4 = icmp eq i32 %10, 1
  %or.cond = select i1 %8, i1 true, i1 %.not4
  br i1 %or.cond, label %12, label %11

11:                                               ; preds = %7
  tail call void @_ZN7FactMgr17output_assertionsERSoPK9Statementib(ptr noundef nonnull align 8 dereferenceable(392) %2, ptr noundef nonnull align 8 dereferenceable(8) %1, ptr noundef nonnull %0, i32 noundef %3, i1 noundef zeroext true)
  br label %12

12:                                               ; preds = %11, %7, %5, %4
  ret void
}